target datalayout = "e-m:e-p270:32:32-p271:32:32-p272:64:64-i64:64-i128:128-f80:128-n8:16:32:64-S128"
target triple = "x86_64-pc-linux-gnu"

%struct._structmodulestate = type { ptr, ptr, ptr, ptr }
%struct._formatdef = type { i8, i64, i64, ptr, ptr }

@PyExc_OverflowError = external global ptr, align 8
@.str.51 = private unnamed_addr constant [40 x i8] c"'%c' format requires 0 <= number <= %zu\00", align 1
@.str.52 = private unnamed_addr constant [42 x i8] c"'%c' format requires %zd <= number <= %zd\00", align 1

; Function Attrs: nounwind uwtable
define internal i32 @_range_error(ptr noundef %0, ptr noundef %1, i32 noundef %2) #0 {
  %4 = alloca ptr, align 8
  %5 = alloca ptr, align 8
  %6 = alloca i32, align 4
  %7 = alloca i64, align 8
  %8 = alloca i64, align 8
  store ptr %0, ptr %4, align 8, !tbaa !8
  store ptr %1, ptr %5, align 8, !tbaa !49
  store i32 %2, ptr %6, align 4, !tbaa !11
  call void @llvm.lifetime.start.p0(i64 8, ptr %7) #8
  %9 = load ptr, ptr %5, align 8, !tbaa !49
  %10 = getelementptr inbounds nuw %struct._formatdef, ptr %9, i32 0, i32 1
  %11 = load i64, ptr %10, align 8, !tbaa !75
  %12 = sub i64 8, %11
  %13 = mul i64 %12, 8
  %14 = lshr i64 -1, %13
  store i64 %14, ptr %7, align 8, !tbaa !18
  %15 = load i32, ptr %6, align 4, !tbaa !11
  %16 = icmp ne i32 %15, 0
  br i1 %16, label %17, label %27

17:                                               ; preds = %3
  %18 = load ptr, ptr %4, align 8, !tbaa !8
  %19 = getelementptr inbounds nuw %struct._structmodulestate, ptr %18, i32 0, i32 3
  %20 = load ptr, ptr %19, align 8, !tbaa !15
  %21 = load ptr, ptr %5, align 8, !tbaa !49
  %22 = getelementptr inbounds nuw %struct._formatdef, ptr %21, i32 0, i32 0
  %23 = load i8, ptr %22, align 8, !tbaa !52
  %24 = sext i8 %23 to i32
  %25 = load i64, ptr %7, align 8, !tbaa !18
  %26 = call ptr (ptr, ptr, ...) @PyErr_Format(ptr noundef %20, ptr noundef @.str.51, i32 noundef %24, i64 noundef %25)
  br label %41

27:                                               ; preds = %3
  call void @llvm.lifetime.start.p0(i64 8, ptr %8) #8
  %28 = load i64, ptr %7, align 8, !tbaa !18
  %29 = lshr i64 %28, 1
  store i64 %29, ptr %8, align 8, !tbaa !18
  %30 = load ptr, ptr %4, align 8, !tbaa !8
  %31 = getelementptr inbounds nuw %struct._structmodulestate, ptr %30, i32 0, i32 3
  %32 = load ptr, ptr %31, align 8, !tbaa !15
  %33 = load ptr, ptr %5, align 8, !tbaa !49
  %34 = getelementptr inbounds nuw %struct._formatdef, ptr %33, i32 0, i32 0
  %35 = load i8, ptr %34, align 8, !tbaa !52
  %36 = sext i8 %35 to i32
  %37 = load i64, ptr %8, align 8, !tbaa !18
  %38 = xor i64 %37, -1
  %39 = load i64, ptr %8, align 8, !tbaa !18
  %40 = call ptr (ptr, ptr, ...) @PyErr_Format(ptr noundef %32, ptr noundef @.str.52, i32 noundef %36, i64 noundef %38, i64 noundef %39)
  call void @llvm.lifetime.end.p0(i64 8, ptr %8) #8
  br label %41

41:                                               ; preds = %27, %17
  call void @llvm.lifetime.end.p0(i64 8, ptr %7) #8
  ret i32 -1
}

; Function Attrs: nounwind uwtable
define internal i32 @np_byte(ptr noundef %0, ptr noundef %1, ptr noundef %2, ptr noundef %3) #0 {
  %5 = alloca i32, align 4
  %6 = alloca ptr, align 8
  %7 = alloca ptr, align 8
  %8 = alloca ptr, align 8
  %9 = alloca ptr, align 8
  %10 = alloca i64, align 8
  %11 = alloca i32, align 4
  store ptr %0, ptr %6, align 8, !tbaa !8
  store ptr %1, ptr %7, align 8, !tbaa !43
  store ptr %2, ptr %8, align 8, !tbaa !3
  store ptr %3, ptr %9, align 8, !tbaa !49
  call void @llvm.lifetime.start.p0(i64 8, ptr %10) #8
  %12 = load ptr, ptr %6, align 8, !tbaa !8
  %13 = load ptr, ptr %8, align 8, !tbaa !3
  %14 = call i32 @get_long(ptr noundef %12, ptr noundef %13, ptr noundef %10)
  %15 = icmp slt i32 %14, 0
  br i1 %15, label %16, label %25

16:                                               ; preds = %4
  %17 = load ptr, ptr @PyExc_OverflowError, align 8, !tbaa !3
  %18 = call i32 @PyErr_ExceptionMatches(ptr noundef %17)
  %19 = icmp ne i32 %18, 0
  br i1 %19, label %20, label %24

20:                                               ; preds = %16
  %21 = load ptr, ptr %6, align 8, !tbaa !8
  %22 = load ptr, ptr %9, align 8, !tbaa !49
  %23 = call i32 @_range_error(ptr noundef %21, ptr noundef %22, i32 noundef 0)
  store i32 %23, ptr %5, align 4
  store i32 1, ptr %11, align 4
  br label %39

24:                                               ; preds = %16
  store i32 -1, ptr %5, align 4
  store i32 1, ptr %11, align 4
  br label %39

25:                                               ; preds = %4
  %26 = load i64, ptr %10, align 8, !tbaa !18
  %27 = icmp slt i64 %26, -128
  br i1 %27, label %31, label %28

28:                                               ; preds = %25
  %29 = load i64, ptr %10, align 8, !tbaa !18
  %30 = icmp sgt i64 %29, 127
  br i1 %30, label %31, label %35

31:                                               ; preds = %28, %25
  %32 = load ptr, ptr %6, align 8, !tbaa !8
  %33 = load ptr, ptr %9, align 8, !tbaa !49
  %34 = call i32 @_range_error(ptr noundef %32, ptr noundef %33, i32 noundef 0)
  store i32 %34, ptr %5, align 4
  store i32 1, ptr %11, align 4
  br label %39

35:                                               ; preds = %28
  %36 = load i64, ptr %10, align 8, !tbaa !18
  %37 = trunc i64 %36 to i8
  %38 = load ptr, ptr %7, align 8, !tbaa !43
  store i8 %37, ptr %38, align 1, !tbaa !32
  store i32 0, ptr %5, align 4
  store i32 1, ptr %11, align 4
  br label %39

39:                                               ; preds = %35, %31, %24, %20
  call void @llvm.lifetime.end.p0(i64 8, ptr %10) #8
  %40 = load i32, ptr %5, align 4
  ret i32 %40
}